target datalayout = "e-m:e-p270:32:32-p271:32:32-p272:64:64-i64:64-i128:128-f80:128-n8:16:32:64-S128"
target triple = "x86_64-pc-linux-gnu"

%"class.llvm::SmallVectorBase" = type { ptr, i32, i32 }
%"class.llvm::TLSVariableHoistPass" = type { ptr, ptr, %"class.llvm::MapVector" }
%"class.llvm::MapVector" = type { %"class.llvm::DenseMap.5", %"class.llvm::SmallVector.8" }
%"class.llvm::DenseMap.5" = type <{ ptr, i32, i32, i32, [4 x i8] }>
%"class.llvm::SmallVector.8" = type { %"class.llvm::SmallVectorImpl.9" }
%"class.llvm::SmallVectorImpl.9" = type { %"class.llvm::SmallVectorTemplateBase.10" }
%"class.llvm::SmallVectorTemplateBase.10" = type { %"class.llvm::SmallVectorTemplateCommon.11" }
%"class.llvm::SmallVectorTemplateCommon.11" = type { %"class.llvm::SmallVectorBase" }
%"struct.std::pair" = type { ptr, %"struct.llvm::tlshoist::TLSCandidate" }
%"struct.llvm::tlshoist::TLSCandidate" = type { %"class.llvm::SmallVector.19" }
%"class.llvm::SmallVector.19" = type { %"class.llvm::SmallVectorImpl.20", %"struct.llvm::SmallVectorStorage.23" }
%"class.llvm::SmallVectorImpl.20" = type { %"class.llvm::SmallVectorTemplateBase.21" }
%"class.llvm::SmallVectorTemplateBase.21" = type { %"class.llvm::SmallVectorTemplateCommon.22" }
%"class.llvm::SmallVectorTemplateCommon.22" = type { %"class.llvm::SmallVectorBase" }
%"struct.llvm::SmallVectorStorage.23" = type { [128 x i8] }

; Function Attrs: mustprogress nounwind uwtable
define linkonce_odr hidden noundef ptr @_ZN4llvm25SmallVectorTemplateCommonISt4pairIPNS_14GlobalVariableENS_8tlshoist12TLSCandidateEEvE3endEv(ptr noundef nonnull align 8 dereferenceable(16) %0) #1 comdat align 2 {
  %2 = alloca ptr, align 8
  store ptr %0, ptr %2, align 8
  %3 = load ptr, ptr %2, align 8
  %4 = call noundef ptr @_ZN4llvm25SmallVectorTemplateCommonISt4pairIPNS_14GlobalVariableENS_8tlshoist12TLSCandidateEEvE5beginEv(ptr noundef nonnull align 8 dereferenceable(16) %3)
  %5 = call noundef i64 @_ZNK4llvm15SmallVectorBaseIjE4sizeEv(ptr noundef nonnull align 8 dereferenceable(16) %3)
  %6 = getelementptr inbounds %"struct.std::pair", ptr %4, i64 %5
  ret ptr %6
}

; Function Attrs: mustprogress nounwind uwtable
define linkonce_odr hidden noundef ptr @_ZN4llvm25SmallVectorTemplateCommonISt4pairIPNS_14GlobalVariableENS_8tlshoist12TLSCandidateEEvE5beginEv(ptr noundef nonnull align 8 dereferenceable(16) %0) #1 comdat align 2 {
  %2 = alloca ptr, align 8
  store ptr %0, ptr %2, align 8
  %3 = load ptr, ptr %2, align 8
  %4 = getelementptr inbounds nuw %"class.llvm::SmallVectorBase", ptr %3, i32 0, i32 0
  %5 = load ptr, ptr %4, align 8
  ret ptr %5
}

; Function Attrs: mustprogress nounwind uwtable
define linkonce_odr hidden noundef ptr @_ZN4llvm9MapVectorIPNS_14GlobalVariableENS_8tlshoist12TLSCandidateENS_8DenseMapIS2_jNS_12DenseMapInfoIS2_vEENS_6detail12DenseMapPairIS2_jEEEENS_11SmallVectorISt4pairIS2_S4_ELj0EEEE3endEv(ptr noundef nonnull align 8 dereferenceable(40) %0) #1 comdat align 2 {
  %2 = alloca ptr, align 8
  store ptr %0, ptr %2, align 8
  %3 = load ptr, ptr %2, align 8
  %4 = getelementptr inbounds nuw %"class.llvm::MapVector", ptr %3, i32 0, i32 1
  %5 = call noundef ptr @_ZN4llvm25SmallVectorTemplateCommonISt4pairIPNS_14GlobalVariableENS_8tlshoist12TLSCandidateEEvE3endEv(ptr noundef nonnull align 8 dereferenceable(16) %4)
  ret ptr %5
}

; Function Attrs: mustprogress nounwind uwtable
define linkonce_odr hidden noundef ptr @_ZN4llvm9MapVectorIPNS_14GlobalVariableENS_8tlshoist12TLSCandidateENS_8DenseMapIS2_jNS_12DenseMapInfoIS2_vEENS_6detail12DenseMapPairIS2_jEEEENS_11SmallVectorISt4pairIS2_S4_ELj0EEEE5beginEv(ptr noundef nonnull align 8 dereferenceable(40) %0) #1 comdat align 2 {
  %2 = alloca ptr, align 8
  store ptr %0, ptr %2, align 8
  %3 = load ptr, ptr %2, align 8
  %4 = getelementptr inbounds nuw %"class.llvm::MapVector", ptr %3, i32 0, i32 1
  %5 = call noundef ptr @_ZN4llvm25SmallVectorTemplateCommonISt4pairIPNS_14GlobalVariableENS_8tlshoist12TLSCandidateEEvE5beginEv(ptr noundef nonnull align 8 dereferenceable(16) %4)
  ret ptr %5
}

; Function Attrs: mustprogress nounwind uwtable
define linkonce_odr hidden noundef zeroext i1 @_ZNK4llvm9MapVectorIPNS_14GlobalVariableENS_8tlshoist12TLSCandidateENS_8DenseMapIS2_jNS_12DenseMapInfoIS2_vEENS_6detail12DenseMapPairIS2_jEEEENS_11SmallVectorISt4pairIS2_S4_ELj0EEEE5emptyEv(ptr noundef nonnull align 8 dereferenceable(40) %0) #1 comdat align 2 {
  %2 = alloca ptr, align 8
  store ptr %0, ptr %2, align 8
  %3 = load ptr, ptr %2, align 8
  %4 = getelementptr inbounds nuw %"class.llvm::MapVector", ptr %3, i32 0, i32 1
  %5 = call noundef zeroext i1 @_ZNK4llvm15SmallVectorBaseIjE5emptyEv(ptr noundef nonnull align 8 dereferenceable(16) %4)
  ret i1 %5
}

; Function Attrs: mustprogress nounwind uwtable
define dso_local noundef zeroext i1 @_ZN4llvm20TLSVariableHoistPass23tryReplaceTLSCandidatesERNS_8FunctionE(ptr noundef nonnull align 8 dereferenceable(56) %0, ptr noundef nonnull align 8 dereferenceable(136) %1) #1 align 2 {
  %3 = alloca i1, align 1
  %4 = alloca ptr, align 8
  %5 = alloca ptr, align 8
  %6 = alloca i8, align 1
  %7 = alloca ptr, align 8
  %8 = alloca ptr, align 8
  %9 = alloca ptr, align 8
  %10 = alloca ptr, align 8
  %11 = alloca ptr, align 8
  store ptr %0, ptr %4, align 8
  store ptr %1, ptr %5, align 8
  %12 = load ptr, ptr %4, align 8
  %13 = getelementptr inbounds nuw %"class.llvm::TLSVariableHoistPass", ptr %12, i32 0, i32 2
  %14 = call noundef zeroext i1 @_ZNK4llvm9MapVectorIPNS_14GlobalVariableENS_8tlshoist12TLSCandidateENS_8DenseMapIS2_jNS_12DenseMapInfoIS2_vEENS_6detail12DenseMapPairIS2_jEEEENS_11SmallVectorISt4pairIS2_S4_ELj0EEEE5emptyEv(ptr noundef nonnull align 8 dereferenceable(40) %13)
  br i1 %14, label %15, label %16

15:                                               ; preds = %2
  store i1 false, ptr %3, align 1
  br label %47

16:                                               ; preds = %2
  store i8 0, ptr %6, align 1
  %17 = getelementptr inbounds nuw %"class.llvm::TLSVariableHoistPass", ptr %12, i32 0, i32 2
  store ptr %17, ptr %7, align 8
  %18 = load ptr, ptr %7, align 8
  %19 = call noundef ptr @_ZN4llvm9MapVectorIPNS_14GlobalVariableENS_8tlshoist12TLSCandidateENS_8DenseMapIS2_jNS_12DenseMapInfoIS2_vEENS_6detail12DenseMapPairIS2_jEEEENS_11SmallVectorISt4pairIS2_S4_ELj0EEEE5beginEv(ptr noundef nonnull align 8 dereferenceable(40) %18)
  store ptr %19, ptr %8, align 8
  %20 = load ptr, ptr %7, align 8
  %21 = call noundef ptr @_ZN4llvm9MapVectorIPNS_14GlobalVariableENS_8tlshoist12TLSCandidateENS_8DenseMapIS2_jNS_12DenseMapInfoIS2_vEENS_6detail12DenseMapPairIS2_jEEEENS_11SmallVectorISt4pairIS2_S4_ELj0EEEE3endEv(ptr noundef nonnull align 8 dereferenceable(40) %20)
  store ptr %21, ptr %9, align 8
  br label %22

22:                                               ; preds = %41, %16
  %23 = load ptr, ptr %8, align 8
  %24 = load ptr, ptr %9, align 8
  %25 = icmp ne ptr %23, %24
  br i1 %25, label %26, label %44

26:                                               ; preds = %22
  %27 = load ptr, ptr %8, align 8
  store ptr %27, ptr %10, align 8
  %28 = load ptr, ptr %10, align 8
  %29 = getelementptr inbounds nuw %"struct.std::pair", ptr %28, i32 0, i32 0
  %30 = load ptr, ptr %29, align 8
  store ptr %30, ptr %11, align 8
  %31 = load ptr, ptr %5, align 8
  %32 = load ptr, ptr %11, align 8
  %33 = call noundef zeroext i1 @_ZN4llvm20TLSVariableHoistPass22tryReplaceTLSCandidateERNS_8FunctionEPNS_14GlobalVariableE(ptr noundef nonnull align 8 dereferenceable(56) %12, ptr noundef nonnull align 8 dereferenceable(136) %31, ptr noundef %32)
  %34 = zext i1 %33 to i32
  %35 = load i8, ptr %6, align 1
  %36 = trunc i8 %35 to i1
  %37 = zext i1 %36 to i32
  %38 = or i32 %37, %34
  %39 = icmp ne i32 %38, 0
  %40 = zext i1 %39 to i8
  store i8 %40, ptr %6, align 1
  br label %41

41:                                               ; preds = %26
  %42 = load ptr, ptr %8, align 8
  %43 = getelementptr inbounds %"struct.std::pair", ptr %42, i32 1
  store ptr %43, ptr %8, align 8
  br label %22

44:                                               ; preds = %22
  %45 = load i8, ptr %6, align 1
  %46 = trunc i8 %45 to i1
  store i1 %46, ptr %3, align 1
  br label %47

47:                                               ; preds = %44, %15
  %48 = load i1, ptr %3, align 1
  ret i1 %48
}