; Function Attrs: mustprogress nounwind uwtable
define dso_local noundef zeroext i1 @_ZN4llvm20TLSVariableHoistPass23tryReplaceTLSCandidatesERNS_8FunctionE(ptr noundef nonnull align 8 dereferenceable(56) %0, ptr noundef nonnull readonly align 8 captures(none) dereferenceable(136) %1) local_unnamed_addr #0 align 2 {
  %3 = getelementptr inbounds nuw i8, ptr %0, i64 40
  %4 = tail call noundef zeroext i1 @_ZNK4llvm15SmallVectorBaseIjE5emptyEv(ptr noundef nonnull align 8 dereferenceable(16) %3) #17
  br i1 %4, label %.loopexit, label %5

5:                                                ; preds = %2
  %6 = load ptr, ptr %3, align 8
  %7 = tail call noundef i64 @_ZNK4llvm15SmallVectorBaseIjE4sizeEv(ptr noundef nonnull align 8 dereferenceable(16) %3) #17
  %8 = getelementptr inbounds %"struct.std::pair", ptr %6, i64 %7
  %.not14 = icmp eq i64 %7, 0
  br i1 %.not14, label %.loopexit, label %.lr.ph

.lr.ph:                                           ; preds = %5, %.lr.ph
  %.01216 = phi i1 [ %11, %.lr.ph ], [ false, %5 ]
  %.01315 = phi ptr [ %12, %.lr.ph ], [ %6, %5 ]
  %9 = load ptr, ptr %.01315, align 8
  %10 = tail call noundef zeroext i1 @_ZN4llvm20TLSVariableHoistPass22tryReplaceTLSCandidateERNS_8FunctionEPNS_14GlobalVariableE(ptr noundef nonnull align 8 dereferenceable(56) %0, ptr noundef nonnull align 8 dereferenceable(136) %1, ptr noundef %9)
  %11 = or i1 %.01216, %10
  %12 = getelementptr inbounds nuw i8, ptr %.01315, i64 152
  %.not = icmp eq ptr %12, %8
  br i1 %.not, label %.loopexit, label %.lr.ph

.loopexit:                                        ; preds = %.lr.ph, %5, %2
  %.0 = phi i1 [ false, %2 ], [ false, %5 ], [ %11, %.lr.ph ]
  ret i1 %.0
}